; Function Attrs: mustprogress nofree norecurse nosync nounwind memory(readwrite, inaccessiblemem: none) uwtable
define dso_local noundef zeroext i1 @_ZN4llvm20MachineJumpTableInfo21ReplaceMBBInJumpTableEjPNS_17MachineBasicBlockES2_(ptr noundef nonnull readonly align 8 captures(none) dereferenceable(32) %0, i32 noundef %1, ptr noundef readnone %2, ptr noundef %3) local_unnamed_addr #7 align 2 {
  %5 = getelementptr inbounds nuw i8, ptr %0, i64 8
  %6 = zext i32 %1 to i64
  %7 = load ptr, ptr %5, align 8
  %8 = getelementptr inbounds nuw %"struct.llvm::MachineJumpTableEntry", ptr %7, i64 %6
  %9 = load ptr, ptr %8, align 8
  %10 = getelementptr inbounds nuw i8, ptr %8, i64 8
  %11 = load ptr, ptr %10, align 8
  %.not12 = icmp eq ptr %9, %11
  br i1 %.not12, label %._crit_edge, label %.lr.ph

.lr.ph:                                           ; preds = %4, %15
  %.014 = phi i1 [ %.1, %15 ], [ false, %4 ]
  %.sroa.09.013 = phi ptr [ %16, %15 ], [ %9, %4 ]
  %12 = load ptr, ptr %.sroa.09.013, align 8
  %13 = icmp eq ptr %12, %2
  br i1 %13, label %14, label %15

14:                                               ; preds = %.lr.ph
  store ptr %3, ptr %.sroa.09.013, align 8
  br label %15

15:                                               ; preds = %.lr.ph, %14
  %.1 = phi i1 [ true, %14 ], [ %.014, %.lr.ph ]
  %16 = getelementptr inbounds nuw i8, ptr %.sroa.09.013, i64 8
  %.not = icmp eq ptr %16, %11
  br i1 %.not, label %._crit_edge, label %.lr.ph

._crit_edge:                                      ; preds = %15, %4
  %.0.lcssa = phi i1 [ false, %4 ], [ %.1, %15 ]
  ret i1 %.0.lcssa
}